target datalayout = "e-m:e-p270:32:32-p271:32:32-p272:64:64-i64:64-i128:128-f80:128-n8:16:32:64-S128"
target triple = "x86_64-pc-linux-gnu"

%struct.luaL_Reg = type { ptr, ptr }
%struct.luaL_Stream = type { ptr, ptr }

@stdin = external global ptr, align 8
@.str = private unnamed_addr constant [10 x i8] c"_IO_input\00", align 1
@.str.1 = private unnamed_addr constant [6 x i8] c"stdin\00", align 1
@stdout = external global ptr, align 8
@.str.2 = private unnamed_addr constant [11 x i8] c"_IO_output\00", align 1
@.str.3 = private unnamed_addr constant [7 x i8] c"stdout\00", align 1
@stderr = external global ptr, align 8
@.str.4 = private unnamed_addr constant [7 x i8] c"stderr\00", align 1
@.str.16 = private unnamed_addr constant [6 x i8] c"FILE*\00", align 1
@metameth = internal constant [5 x %struct.luaL_Reg] [%struct.luaL_Reg { ptr @.str.37, ptr null }, %struct.luaL_Reg { ptr @.str.38, ptr @f_gc }, %struct.luaL_Reg { ptr @.str.39, ptr @f_gc }, %struct.luaL_Reg { ptr @.str.40, ptr @f_tostring }, %struct.luaL_Reg zeroinitializer], align 16
@.str.37 = private unnamed_addr constant [8 x i8] c"__index\00", align 1

; Function Attrs: nounwind uwtable
define internal ptr @newprefile(ptr noundef %0) #0 {
  %2 = alloca ptr, align 8
  %3 = alloca ptr, align 8
  store ptr %0, ptr %2, align 8, !tbaa !4
  call void @llvm.lifetime.start.p0(i64 8, ptr %3) #8
  %4 = load ptr, ptr %2, align 8, !tbaa !4
  %5 = call ptr @lua_newuserdatauv(ptr noundef %4, i64 noundef 16, i32 noundef 0)
  store ptr %5, ptr %3, align 8, !tbaa !13
  %6 = load ptr, ptr %3, align 8, !tbaa !13
  %7 = getelementptr inbounds nuw %struct.luaL_Stream, ptr %6, i32 0, i32 1
  store ptr null, ptr %7, align 8, !tbaa !17
  %8 = load ptr, ptr %2, align 8, !tbaa !4
  call void @luaL_setmetatable(ptr noundef %8, ptr noundef @.str.16)
  %9 = load ptr, ptr %3, align 8, !tbaa !13
  call void @llvm.lifetime.end.p0(i64 8, ptr %3) #8
  ret ptr %9
}

; Function Attrs: nounwind uwtable
define internal void @createstdfile(ptr noundef %0, ptr noundef %1, ptr noundef %2, ptr noundef %3) #0 {
  %5 = alloca ptr, align 8
  %6 = alloca ptr, align 8
  %7 = alloca ptr, align 8
  %8 = alloca ptr, align 8
  %9 = alloca ptr, align 8
  store ptr %0, ptr %5, align 8, !tbaa !4
  store ptr %1, ptr %6, align 8, !tbaa !9
  store ptr %2, ptr %7, align 8, !tbaa !11
  store ptr %3, ptr %8, align 8, !tbaa !11
  call void @llvm.lifetime.start.p0(i64 8, ptr %9) #8
  %10 = load ptr, ptr %5, align 8, !tbaa !4
  %11 = call ptr @newprefile(ptr noundef %10)
  store ptr %11, ptr %9, align 8, !tbaa !13
  %12 = load ptr, ptr %6, align 8, !tbaa !9
  %13 = load ptr, ptr %9, align 8, !tbaa !13
  %14 = getelementptr inbounds nuw %struct.luaL_Stream, ptr %13, i32 0, i32 0
  store ptr %12, ptr %14, align 8, !tbaa !15
  %15 = load ptr, ptr %9, align 8, !tbaa !13
  %16 = getelementptr inbounds nuw %struct.luaL_Stream, ptr %15, i32 0, i32 1
  store ptr @io_noclose, ptr %16, align 8, !tbaa !17
  %17 = load ptr, ptr %7, align 8, !tbaa !11
  %18 = icmp ne ptr %17, null
  br i1 %18, label %19, label %23

19:                                               ; preds = %4
  %20 = load ptr, ptr %5, align 8, !tbaa !4
  call void @lua_pushvalue(ptr noundef %20, i32 noundef -1)
  %21 = load ptr, ptr %5, align 8, !tbaa !4
  %22 = load ptr, ptr %7, align 8, !tbaa !11
  call void @lua_setfield(ptr noundef %21, i32 noundef -1001000, ptr noundef %22)
  br label %23

23:                                               ; preds = %19, %4
  %24 = load ptr, ptr %5, align 8, !tbaa !4
  %25 = load ptr, ptr %8, align 8, !tbaa !11
  call void @lua_setfield(ptr noundef %24, i32 noundef -2, ptr noundef %25)
  call void @llvm.lifetime.end.p0(i64 8, ptr %9) #8
  ret void
}

; Function Attrs: nounwind uwtable
define internal void @createmeta(ptr noundef %0) #0 {
  %2 = alloca ptr, align 8
  store ptr %0, ptr %2, align 8, !tbaa !4
  %3 = load ptr, ptr %2, align 8, !tbaa !4
  %4 = call i32 @luaL_newmetatable(ptr noundef %3, ptr noundef @.str.16)
  %5 = load ptr, ptr %2, align 8, !tbaa !4
  call void @luaL_setfuncs(ptr noundef %5, ptr noundef @metameth, i32 noundef 0)
  %6 = load ptr, ptr %2, align 8, !tbaa !4
  call void @lua_createtable(ptr noundef %6, i32 noundef 0, i32 noundef 7)
  %7 = load ptr, ptr %2, align 8, !tbaa !4
  call void @luaL_setfuncs(ptr noundef %7, ptr noundef @meth, i32 noundef 0)
  %8 = load ptr, ptr %2, align 8, !tbaa !4
  call void @lua_setfield(ptr noundef %8, i32 noundef -2, ptr noundef @.str.37)
  %9 = load ptr, ptr %2, align 8, !tbaa !4
  call void @lua_settop(ptr noundef %9, i32 noundef -2)
  ret void
}

; Function Attrs: nounwind uwtable
define dso_local i32 @luaopen_io(ptr noundef %0) #0 {
  %2 = alloca ptr, align 8
  store ptr %0, ptr %2, align 8, !tbaa !4
  %3 = load ptr, ptr %2, align 8, !tbaa !4
  call void @luaL_checkversion_(ptr noundef %3, double noundef 5.050000e+02, i64 noundef 136)
  %4 = load ptr, ptr %2, align 8, !tbaa !4
  call void @lua_createtable(ptr noundef %4, i32 noundef 0, i32 noundef 11)
  %5 = load ptr, ptr %2, align 8, !tbaa !4
  call void @luaL_setfuncs(ptr noundef %5, ptr noundef @iolib, i32 noundef 0)
  %6 = load ptr, ptr %2, align 8, !tbaa !4
  call void @createmeta(ptr noundef %6)
  %7 = load ptr, ptr %2, align 8, !tbaa !4
  %8 = load ptr, ptr @stdin, align 8, !tbaa !9
  call void @createstdfile(ptr noundef %7, ptr noundef %8, ptr noundef @.str, ptr noundef @.str.1)
  %9 = load ptr, ptr %2, align 8, !tbaa !4
  %10 = load ptr, ptr @stdout, align 8, !tbaa !9
  call void @createstdfile(ptr noundef %9, ptr noundef %10, ptr noundef @.str.2, ptr noundef @.str.3)
  %11 = load ptr, ptr %2, align 8, !tbaa !4
  %12 = load ptr, ptr @stderr, align 8, !tbaa !9
  call void @createstdfile(ptr noundef %11, ptr noundef %12, ptr noundef null, ptr noundef @.str.4)
  ret i32 1
}