; Function Attrs: nounwind uwtable
define dso_local noundef i32 @luaopen_io(ptr noundef %0) local_unnamed_addr #0 {
  tail call void @luaL_checkversion_(ptr noundef %0, double noundef 5.050000e+02, i64 noundef 136) #9
  tail call void @lua_createtable(ptr noundef %0, i32 noundef 0, i32 noundef 11) #9
  tail call void @luaL_setfuncs(ptr noundef %0, ptr noundef nonnull @iolib, i32 noundef 0) #9
  %2 = tail call i32 @luaL_newmetatable(ptr noundef %0, ptr noundef nonnull @.str.16) #9
  tail call void @luaL_setfuncs(ptr noundef %0, ptr noundef nonnull @metameth, i32 noundef 0) #9
  tail call void @lua_createtable(ptr noundef %0, i32 noundef 0, i32 noundef 7) #9
  tail call void @luaL_setfuncs(ptr noundef %0, ptr noundef nonnull @meth, i32 noundef 0) #9
  tail call void @lua_setfield(ptr noundef %0, i32 noundef -2, ptr noundef nonnull @.str.37) #9
  tail call void @lua_settop(ptr noundef %0, i32 noundef -2) #9
  %3 = load ptr, ptr @stdin, align 8, !tbaa !4
  %4 = tail call ptr @lua_newuserdatauv(ptr noundef %0, i64 noundef 16, i32 noundef 0) #9
  %5 = getelementptr inbounds nuw i8, ptr %4, i64 8
  store ptr null, ptr %5, align 8, !tbaa !9
  tail call void @luaL_setmetatable(ptr noundef %0, ptr noundef nonnull @.str.16) #9
  store ptr %3, ptr %4, align 8, !tbaa !11
  store ptr @io_noclose, ptr %5, align 8, !tbaa !9
  tail call void @lua_pushvalue(ptr noundef %0, i32 noundef -1) #9
  tail call void @lua_setfield(ptr noundef %0, i32 noundef -1001000, ptr noundef nonnull @.str) #9
  tail call void @lua_setfield(ptr noundef %0, i32 noundef -2, ptr noundef nonnull @.str.1) #9
  %6 = load ptr, ptr @stdout, align 8, !tbaa !4
  %7 = tail call ptr @lua_newuserdatauv(ptr noundef %0, i64 noundef 16, i32 noundef 0) #9
  %8 = getelementptr inbounds nuw i8, ptr %7, i64 8
  store ptr null, ptr %8, align 8, !tbaa !9
  tail call void @luaL_setmetatable(ptr noundef %0, ptr noundef nonnull @.str.16) #9
  store ptr %6, ptr %7, align 8, !tbaa !11
  store ptr @io_noclose, ptr %8, align 8, !tbaa !9
  tail call void @lua_pushvalue(ptr noundef %0, i32 noundef -1) #9
  tail call void @lua_setfield(ptr noundef %0, i32 noundef -1001000, ptr noundef nonnull @.str.2) #9
  tail call void @lua_setfield(ptr noundef %0, i32 noundef -2, ptr noundef nonnull @.str.3) #9
  %9 = load ptr, ptr @stderr, align 8, !tbaa !4
  %10 = tail call ptr @lua_newuserdatauv(ptr noundef %0, i64 noundef 16, i32 noundef 0) #9
  %11 = getelementptr inbounds nuw i8, ptr %10, i64 8
  store ptr null, ptr %11, align 8, !tbaa !9
  tail call void @luaL_setmetatable(ptr noundef %0, ptr noundef nonnull @.str.16) #9
  store ptr %9, ptr %10, align 8, !tbaa !11
  store ptr @io_noclose, ptr %11, align 8, !tbaa !9
  tail call void @lua_setfield(ptr noundef %0, i32 noundef -2, ptr noundef nonnull @.str.4) #9
  ret i32 1
}